; Function Attrs: mustprogress uwtable
define void @_ZN11OpenImageIO6v3_1_012ImageBufAlgo3cutERKNS0_8ImageBufENS0_3ROIEi(ptr dead_on_unwind noalias nonnull writable sret(%"class.OpenImageIO::v3_1_0::ImageBuf") align 8 %0, ptr noundef nonnull align 8 dereferenceable(16) %1, ptr noundef readonly byval(%"struct.OpenImageIO::v3_1_0::ROI") align 8 captures(none) %2, i32 noundef %3) local_unnamed_addr #5 personality ptr @__gxx_personality_v0 {
  %5 = alloca %"struct.OpenImageIO::v3_1_0::ROI", align 4
  tail call void @_ZN11OpenImageIO6v3_1_08ImageBufC1Ev(ptr noundef nonnull align 8 dereferenceable(16) %0)
  %6 = invoke noundef zeroext i1 @_ZN11OpenImageIO6v3_1_012ImageBufAlgo4cropERNS0_8ImageBufERKS2_NS0_3ROIEi(ptr noundef nonnull align 8 dereferenceable(16) %0, ptr noundef nonnull align 8 dereferenceable(16) %1, ptr noundef nonnull byval(%"struct.OpenImageIO::v3_1_0::ROI") align 8 %2, i32 noundef %3)
          to label %.noexc unwind label %17

.noexc:                                           ; preds = %4
  br i1 %6, label %7, label %13

7:                                                ; preds = %.noexc
  %8 = invoke noundef nonnull align 8 dereferenceable(160) ptr @_ZN11OpenImageIO6v3_1_08ImageBuf7specmodEv(ptr noundef nonnull align 8 dereferenceable(16) %0)
          to label %.noexc5 unwind label %17

.noexc5:                                          ; preds = %7
  store i32 0, ptr %8, align 8, !tbaa !140
  %9 = invoke noundef nonnull align 8 dereferenceable(160) ptr @_ZN11OpenImageIO6v3_1_08ImageBuf7specmodEv(ptr noundef nonnull align 8 dereferenceable(16) %0)
          to label %.noexc6 unwind label %17

.noexc6:                                          ; preds = %.noexc5
  %10 = getelementptr inbounds nuw i8, ptr %9, i64 4
  store i32 0, ptr %10, align 4, !tbaa !141
  %11 = invoke noundef nonnull align 8 dereferenceable(160) ptr @_ZN11OpenImageIO6v3_1_08ImageBuf7specmodEv(ptr noundef nonnull align 8 dereferenceable(16) %0)
          to label %.noexc7 unwind label %17

.noexc7:                                          ; preds = %.noexc6
  %12 = getelementptr inbounds nuw i8, ptr %11, i64 8
  store i32 0, ptr %12, align 8, !tbaa !142
  call void @llvm.lifetime.start.p0(i64 32, ptr nonnull %5) #27
  invoke void @_ZNK11OpenImageIO6v3_1_08ImageBuf3roiEv(ptr dead_on_unwind nonnull writable sret(%"struct.OpenImageIO::v3_1_0::ROI") align 4 %5, ptr noundef nonnull align 8 dereferenceable(16) %0)
          to label %.noexc8 unwind label %17

.noexc8:                                          ; preds = %.noexc7
  invoke void @_ZN11OpenImageIO6v3_1_08ImageBuf12set_roi_fullERKNS0_3ROIE(ptr noundef nonnull align 8 dereferenceable(16) %0, ptr noundef nonnull align 4 dereferenceable(32) %5)
          to label %.thread unwind label %17

.thread:                                          ; preds = %.noexc8
  call void @llvm.lifetime.end.p0(i64 32, ptr nonnull %5) #27
  br label %19

13:                                               ; preds = %.noexc
  %14 = invoke noundef zeroext i1 @_ZNK11OpenImageIO6v3_1_08ImageBuf9has_errorEv(ptr noundef nonnull align 8 dereferenceable(16) %0)
          to label %15 unwind label %17

15:                                               ; preds = %13
  br i1 %14, label %19, label %16

16:                                               ; preds = %15
  invoke void @_ZNK11OpenImageIO6v3_1_08ImageBuf8errorfmtIA26_cJEEEvRKT_DpOT0_(ptr noundef nonnull align 8 dereferenceable(16) %0, ptr noundef nonnull align 1 dereferenceable(26) @.str.13)
          to label %19 unwind label %17

17:                                               ; preds = %.noexc8, %.noexc7, %.noexc6, %.noexc5, %7, %4, %16, %13
  %18 = landingpad { ptr, i32 }
          cleanup
  call void @_ZN11OpenImageIO6v3_1_08ImageBufD1Ev(ptr noundef nonnull align 8 dereferenceable(16) %0) #27
  resume { ptr, i32 } %18

19:                                               ; preds = %.thread, %15, %16
  ret void
}